target datalayout = "e-m:e-p270:32:32-p271:32:32-p272:64:64-i64:64-i128:128-f80:128-n8:16:32:64-S128"
target triple = "x86_64-pc-linux-gnu"

%"class.cv::ml::DTrees::Split" = type { i32, i8, float, i32, float, i32 }

; Function Attrs: mustprogress nounwind uwtable
define void @_ZN2cv2ml6DTrees5SplitC2Ev(ptr noundef nonnull align 4 dereferenceable(24) %0) unnamed_addr #6 align 2 {
  %2 = alloca ptr, align 8
  store ptr %0, ptr %2, align 8, !tbaa !46
  %3 = load ptr, ptr %2, align 8
  %4 = getelementptr inbounds nuw %"class.cv::ml::DTrees::Split", ptr %3, i32 0, i32 0
  store i32 0, ptr %4, align 4, !tbaa !48
  %5 = getelementptr inbounds nuw %"class.cv::ml::DTrees::Split", ptr %3, i32 0, i32 1
  store i8 0, ptr %5, align 4, !tbaa !50
  %6 = getelementptr inbounds nuw %"class.cv::ml::DTrees::Split", ptr %3, i32 0, i32 2
  store float 0.000000e+00, ptr %6, align 4, !tbaa !51
  %7 = getelementptr inbounds nuw %"class.cv::ml::DTrees::Split", ptr %3, i32 0, i32 3
  store i32 -1, ptr %7, align 4, !tbaa !52
  %8 = getelementptr inbounds nuw %"class.cv::ml::DTrees::Split", ptr %3, i32 0, i32 4
  store float 0.000000e+00, ptr %8, align 4, !tbaa !53
  %9 = getelementptr inbounds nuw %"class.cv::ml::DTrees::Split", ptr %3, i32 0, i32 5
  store i32 0, ptr %9, align 4, !tbaa !54
  ret void
}