; Function Attrs: mustprogress nofree norecurse nosync nounwind willreturn memory(argmem: write) uwtable
define void @_ZN2cv2ml6DTrees5SplitC2Ev(ptr noundef nonnull writeonly align 4 captures(none) dereferenceable(24) initializes((0, 5), (8, 24)) %0) unnamed_addr #5 align 2 {
  store i32 0, ptr %0, align 4, !tbaa !30
  %2 = getelementptr inbounds nuw i8, ptr %0, i64 4
  store i8 0, ptr %2, align 4, !tbaa !32
  %3 = getelementptr inbounds nuw i8, ptr %0, i64 8
  store float 0.000000e+00, ptr %3, align 4, !tbaa !33
  %4 = getelementptr inbounds nuw i8, ptr %0, i64 12
  store i32 -1, ptr %4, align 4, !tbaa !34
  %5 = getelementptr inbounds nuw i8, ptr %0, i64 16
  store float 0.000000e+00, ptr %5, align 4, !tbaa !35
  %6 = getelementptr inbounds nuw i8, ptr %0, i64 20
  store i32 0, ptr %6, align 4, !tbaa !36
  ret void
}